; Function Attrs: mustprogress uwtable
define dso_local void @_ZN4Luau7CodeGen3A6418AssemblyBuilderA645faddpENS1_11RegisterA64ES3_(ptr noundef nonnull align 8 dereferenceable(176) %0, i8 %1, i8 %2) local_unnamed_addr #0 align 2 {
  %4 = and i8 %1, 7
  %5 = icmp eq i8 %4, 4
  %6 = select i1 %5, i32 2121324544, i32 2117130240
  %7 = getelementptr inbounds nuw i8, ptr %0, i64 80
  %8 = load i8, ptr %7, align 8, !tbaa !14, !range !46, !noundef !47
  %9 = trunc nuw i8 %8 to i1
  br i1 %9, label %10, label %11

10:                                               ; preds = %3
  tail call void @_ZN4Luau7CodeGen3A6418AssemblyBuilderA643logEPKcNS1_11RegisterA64ES5_(ptr noundef nonnull align 8 dereferenceable(176) %0, ptr noundef nonnull @.str.53, i8 %1, i8 %2)
  br label %11

11:                                               ; preds = %10, %3
  %12 = icmp eq i8 %4, 2
  %13 = and i8 %2, 7
  %14 = icmp eq i8 %13, 2
  %15 = select i1 %12, i1 true, i1 %14
  %16 = select i1 %15, i32 -2147483648, i32 0
  %17 = lshr i8 %1, 3
  %18 = zext nneg i8 %17 to i32
  %19 = lshr i8 %2, 3
  %20 = zext nneg i8 %19 to i32
  %21 = shl nuw nsw i32 %20, 5
  %22 = or disjoint i32 %21, %18
  %23 = or disjoint i32 %22, %6
  %24 = or disjoint i32 %23, %16
  %25 = getelementptr inbounds nuw i8, ptr %0, i64 160
  %26 = load ptr, ptr %25, align 8, !tbaa !39
  %27 = getelementptr inbounds nuw i8, ptr %26, i64 4
  store ptr %27, ptr %25, align 8, !tbaa !39
  store i32 %24, ptr %26, align 4, !tbaa !48
  %28 = getelementptr inbounds nuw i8, ptr %0, i64 168
  %29 = load ptr, ptr %28, align 8, !tbaa !40
  %30 = icmp eq ptr %29, %27
  br i1 %30, label %31, label %_ZN4Luau7CodeGen3A6418AssemblyBuilderA647placeR1EPKcNS1_11RegisterA64ES5_j.exit

31:                                               ; preds = %11
  tail call void @_ZN4Luau7CodeGen3A6418AssemblyBuilderA646extendEv(ptr noundef nonnull align 8 dereferenceable(176) %0)
  br label %_ZN4Luau7CodeGen3A6418AssemblyBuilderA647placeR1EPKcNS1_11RegisterA64ES5_j.exit

_ZN4Luau7CodeGen3A6418AssemblyBuilderA647placeR1EPKcNS1_11RegisterA64ES5_j.exit: ; preds = %11, %31
  ret void
}